; Function Attrs: mustprogress uwtable
define noundef ptr @_ZNK6google8protobuf10TextFormat6Finder11FindAnyTypeERKNS0_7MessageERKNSt7__cxx1112basic_stringIcSt11char_traitsIcESaIcEEESD_(ptr nocapture nonnull readnone align 8 %this, ptr noundef nonnull align 8 dereferenceable(16) %message, ptr noundef nonnull align 8 dereferenceable(32) %prefix, ptr noundef nonnull align 8 dereferenceable(32) %name) unnamed_addr #4 align 2 {
entry:
  %call.i.i.i = tail call noundef i32 @_ZNKSt7__cxx1112basic_stringIcSt11char_traitsIcESaIcEE7compareEPKc(ptr noundef nonnull align 8 dereferenceable(32) %prefix, ptr noundef nonnull @_ZN6google8protobuf8internal24kTypeGoogleApisComPrefixE) #34
  %cmp.i.i.not.i = icmp eq i32 %call.i.i.i, 0
  br i1 %cmp.i.i.not.i, label %if.end.i, label %land.lhs.true.i

land.lhs.true.i:                                  ; preds = %entry
  %call.i.i2.i = tail call noundef i32 @_ZNKSt7__cxx1112basic_stringIcSt11char_traitsIcESaIcEE7compareEPKc(ptr noundef nonnull align 8 dereferenceable(32) %prefix, ptr noundef nonnull @_ZN6google8protobuf8internal24kTypeGoogleProdComPrefixE) #34
  %cmp.i.i3.not.i = icmp eq i32 %call.i.i2.i, 0
  br i1 %cmp.i.i3.not.i, label %if.end.i, label %_ZN6google8protobuf12_GLOBAL__N_124DefaultFinderFindAnyTypeERKNS0_7MessageERKNSt7__cxx1112basic_stringIcSt11char_traitsIcESaIcEEESC_.exit

if.end.i:                                         ; preds = %land.lhs.true.i, %entry
  %vtable.i.i = load ptr, ptr %message, align 8
  %vfn.i.i = getelementptr inbounds i8, ptr %vtable.i.i, i64 80
  %0 = load ptr, ptr %vfn.i.i, align 8
  %call.i.i = tail call { ptr, ptr } %0(ptr noundef nonnull align 8 dereferenceable(16) %message)
  %1 = extractvalue { ptr, ptr } %call.i.i, 0
  %file_.i.i = getelementptr inbounds i8, ptr %1, i64 16
  %2 = load ptr, ptr %file_.i.i, align 8
  %pool_.i.i = getelementptr inbounds i8, ptr %2, i64 24
  %3 = load ptr, ptr %pool_.i.i, align 8
  %call5.i = tail call { i64, ptr } @_ZNKSt7__cxx1112basic_stringIcSt11char_traitsIcESaIcEEcvSt17basic_string_viewIcS2_EEv(ptr noundef nonnull align 8 dereferenceable(32) %name) #34
  %4 = extractvalue { i64, ptr } %call5.i, 0
  %5 = extractvalue { i64, ptr } %call5.i, 1
  %call6.i = tail call noundef ptr @_ZNK6google8protobuf14DescriptorPool21FindMessageTypeByNameESt17basic_string_viewIcSt11char_traitsIcEE(ptr noundef nonnull align 8 dereferenceable(96) %3, i64 %4, ptr %5)
  br label %_ZN6google8protobuf12_GLOBAL__N_124DefaultFinderFindAnyTypeERKNS0_7MessageERKNSt7__cxx1112basic_stringIcSt11char_traitsIcESaIcEEESC_.exit

_ZN6google8protobuf12_GLOBAL__N_124DefaultFinderFindAnyTypeERKNS0_7MessageERKNSt7__cxx1112basic_stringIcSt11char_traitsIcESaIcEEESC_.exit: ; preds = %land.lhs.true.i, %if.end.i
  %retval.0.i = phi ptr [ %call6.i, %if.end.i ], [ null, %land.lhs.true.i ]
  ret ptr %retval.0.i
}